; Function Attrs: mustprogress nofree norecurse nounwind memory(read, argmem: readwrite, inaccessiblemem: readwrite) uwtable
define hidden void @_ZN5ZPage12reset_seqnumEv(ptr noundef nonnull align 8 dereferenceable(192) %0) local_unnamed_addr #4 align 2 {
  %2 = getelementptr inbounds i8, ptr %0, i64 4
  %3 = getelementptr inbounds i8, ptr %0, i64 1
  %4 = load i8, ptr %3, align 1
  %.not = icmp eq i8 %4, 0
  %_ZN11ZGeneration6_youngE.val.i.i = load ptr, ptr @_ZN11ZGeneration6_youngE, align 8
  %_ZN11ZGeneration4_oldE.val.i.i = load ptr, ptr @_ZN11ZGeneration4_oldE, align 8
  %.0.i.i = select i1 %.not, ptr %_ZN11ZGeneration6_youngE.val.i.i, ptr %_ZN11ZGeneration4_oldE.val.i.i
  %5 = getelementptr inbounds i8, ptr %.0.i.i, i64 3220
  %6 = load i32, ptr %5, align 4
  store volatile i32 %6, ptr %2, align 4
  %7 = getelementptr inbounds i8, ptr %0, i64 8
  %_ZN11ZGeneration6_youngE.val.i = load ptr, ptr @_ZN11ZGeneration6_youngE, align 8
  %_ZN11ZGeneration4_oldE.val.i = load ptr, ptr @_ZN11ZGeneration4_oldE, align 8
  %.0.i = select i1 %.not, ptr %_ZN11ZGeneration4_oldE.val.i, ptr %_ZN11ZGeneration6_youngE.val.i
  %8 = getelementptr inbounds i8, ptr %.0.i, i64 3220
  %9 = load i32, ptr %8, align 4
  store volatile i32 %9, ptr %7, align 8
  ret void
}